target datalayout = "e-m:e-p270:32:32-p271:32:32-p272:64:64-i64:64-i128:128-f80:128-n8:16:32:64-S128"
target triple = "x86_64-pc-linux-gnu"

%struct.H5O_shmesg_table_t = type { i64, i32, i32 }

@H5O_init_g = external global i8, align 1
@H5_libterm_g = external global i8, align 1
@.str.1 = private unnamed_addr constant [103 x i8] c"generated/home/dtcxzyw/WorkSpace/Projects/compilers/llvm-opt-benchmark/bench/hdf5/hdf5/src/H5Oshmesg.c\00", align 1
@__func__.H5O__shmesg_decode = private unnamed_addr constant [19 x i8] c"H5O__shmesg_decode\00", align 1
@H5E_RESOURCE_g = external global i64, align 8
@H5E_NOSPACE_g = external global i64, align 8
@.str.2 = private unnamed_addr constant [58 x i8] c"memory allocation failed for shared message table message\00", align 1
@H5E_OHDR_g = external global i64, align 8
@H5E_OVERFLOW_g = external global i64, align 8
@.str.3 = private unnamed_addr constant [43 x i8] c"ran off end of input buffer while decoding\00", align 1

; Function Attrs: nounwind uwtable
define internal ptr @H5O__shmesg_decode(ptr noundef %0, ptr noundef %1, i32 noundef %2, ptr noundef %3, i64 noundef %4, ptr noundef %5) #0 {
  %7 = alloca ptr, align 8
  %8 = alloca ptr, align 8
  %9 = alloca i32, align 4
  %10 = alloca ptr, align 8
  %11 = alloca i64, align 8
  %12 = alloca ptr, align 8
  %13 = alloca ptr, align 8
  %14 = alloca ptr, align 8
  %15 = alloca ptr, align 8
  %16 = alloca i8, align 1
  store ptr %0, ptr %7, align 8, !tbaa !3
  store ptr %1, ptr %8, align 8, !tbaa !8
  store i32 %2, ptr %9, align 4, !tbaa !10
  store ptr %3, ptr %10, align 8, !tbaa !12
  store i64 %4, ptr %11, align 8, !tbaa !14
  store ptr %5, ptr %12, align 8, !tbaa !16
  call void @llvm.lifetime.start.p0(i64 8, ptr %13) #8
  call void @llvm.lifetime.start.p0(i64 8, ptr %14) #8
  %17 = load ptr, ptr %12, align 8, !tbaa !16
  %18 = load i64, ptr %11, align 8, !tbaa !14
  %19 = getelementptr inbounds nuw i8, ptr %17, i64 %18
  %20 = getelementptr inbounds i8, ptr %19, i64 -1
  store ptr %20, ptr %14, align 8, !tbaa !16
  call void @llvm.lifetime.start.p0(i64 8, ptr %15) #8
  store ptr null, ptr %15, align 8, !tbaa !18
  call void @llvm.lifetime.start.p0(i64 1, ptr %16) #8
  store i8 0, ptr %16, align 1, !tbaa !19
  %21 = load i8, ptr @H5O_init_g, align 1, !tbaa !19, !range !21, !noundef !22
  %22 = trunc i8 %21 to i1
  br i1 %22, label %27, label %23

23:                                               ; preds = %6
  %24 = load i8, ptr @H5_libterm_g, align 1, !tbaa !19, !range !21, !noundef !22
  %25 = trunc i8 %24 to i1
  %26 = xor i1 %25, true
  br label %27

27:                                               ; preds = %23, %6
  %28 = phi i1 [ true, %6 ], [ %26, %23 ]
  %29 = xor i1 %28, true
  %30 = xor i1 %29, true
  %31 = zext i1 %30 to i32
  %32 = sext i32 %31 to i64
  %33 = call i64 @llvm.expect.i64(i64 %32, i64 1)
  %34 = icmp ne i64 %33, 0
  br i1 %34, label %35, label %195

35:                                               ; preds = %27
  %36 = call noalias ptr @calloc(i64 noundef 1, i64 noundef 16) #9
  store ptr %36, ptr %13, align 8, !tbaa !23
  %37 = icmp eq ptr null, %36
  br i1 %37, label %38, label %57

38:                                               ; preds = %35
  br label %39

39:                                               ; preds = %38
  br label %40

40:                                               ; preds = %39
  br label %41

41:                                               ; preds = %40
  %42 = load i64, ptr @H5E_RESOURCE_g, align 8, !tbaa !14
  %43 = load i64, ptr @H5E_NOSPACE_g, align 8, !tbaa !14
  %44 = call i32 (ptr, ptr, i32, i64, i64, ptr, ...) @H5E_printf_stack(ptr noundef @.str.1, ptr noundef @__func__.H5O__shmesg_decode, i32 noundef 82, i64 noundef %42, i64 noundef %43, ptr noundef @.str.2)
  br label %45

45:                                               ; preds = %41
  br label %46

46:                                               ; preds = %45
  store i8 1, ptr %16, align 1, !tbaa !19
  %47 = load i8, ptr %16, align 1, !tbaa !19, !range !21, !noundef !22
  %48 = trunc i8 %47 to i1
  %49 = zext i1 %48 to i8
  store i8 %49, ptr %16, align 1, !tbaa !19
  br label %50

50:                                               ; preds = %46
  br label %51

51:                                               ; preds = %50
  br label %52

52:                                               ; preds = %51
  store ptr null, ptr %15, align 8, !tbaa !18
  br label %185

53:                                               ; No predecessors!
  br label %54

54:                                               ; preds = %53
  br label %55

55:                                               ; preds = %54
  br label %56

56:                                               ; preds = %55
  br label %57

57:                                               ; preds = %56, %35
  %58 = load ptr, ptr %12, align 8, !tbaa !16
  %59 = load ptr, ptr %14, align 8, !tbaa !16
  %60 = icmp ugt ptr %58, %59
  br i1 %60, label %69, label %61

61:                                               ; preds = %57
  %62 = load ptr, ptr %14, align 8, !tbaa !16
  %63 = load ptr, ptr %12, align 8, !tbaa !16
  %64 = ptrtoint ptr %62 to i64
  %65 = ptrtoint ptr %63 to i64
  %66 = sub i64 %64, %65
  %67 = add nsw i64 %66, 1
  %68 = icmp ugt i64 1, %67
  br i1 %68, label %69, label %88

69:                                               ; preds = %61, %57
  br label %70

70:                                               ; preds = %69
  br label %71

71:                                               ; preds = %70
  br label %72

72:                                               ; preds = %71
  %73 = load i64, ptr @H5E_OHDR_g, align 8, !tbaa !14
  %74 = load i64, ptr @H5E_OVERFLOW_g, align 8, !tbaa !14
  %75 = call i32 (ptr, ptr, i32, i64, i64, ptr, ...) @H5E_printf_stack(ptr noundef @.str.1, ptr noundef @__func__.H5O__shmesg_decode, i32 noundef 86, i64 noundef %73, i64 noundef %74, ptr noundef @.str.3)
  br label %76

76:                                               ; preds = %72
  br label %77

77:                                               ; preds = %76
  store i8 1, ptr %16, align 1, !tbaa !19
  %78 = load i8, ptr %16, align 1, !tbaa !19, !range !21, !noundef !22
  %79 = trunc i8 %78 to i1
  %80 = zext i1 %79 to i8
  store i8 %80, ptr %16, align 1, !tbaa !19
  br label %81

81:                                               ; preds = %77
  br label %82

82:                                               ; preds = %81
  br label %83

83:                                               ; preds = %82
  store ptr null, ptr %15, align 8, !tbaa !18
  br label %185

84:                                               ; No predecessors!
  br label %85

85:                                               ; preds = %84
  br label %86

86:                                               ; preds = %85
  br label %87

87:                                               ; preds = %86
  br label %88

88:                                               ; preds = %87, %61
  %89 = load ptr, ptr %12, align 8, !tbaa !16
  %90 = getelementptr inbounds nuw i8, ptr %89, i32 1
  store ptr %90, ptr %12, align 8, !tbaa !16
  %91 = load i8, ptr %89, align 1, !tbaa !25
  %92 = zext i8 %91 to i32
  %93 = load ptr, ptr %13, align 8, !tbaa !23
  %94 = getelementptr inbounds nuw %struct.H5O_shmesg_table_t, ptr %93, i32 0, i32 1
  store i32 %92, ptr %94, align 8, !tbaa !26
  %95 = load ptr, ptr %7, align 8, !tbaa !3
  %96 = call zeroext i8 @H5F_sizeof_addr(ptr noundef %95)
  %97 = zext i8 %96 to i32
  %98 = icmp ne i32 %97, 0
  br i1 %98, label %99, label %143

99:                                               ; preds = %88
  %100 = load ptr, ptr %12, align 8, !tbaa !16
  %101 = load ptr, ptr %14, align 8, !tbaa !16
  %102 = icmp ugt ptr %100, %101
  br i1 %102, label %124, label %103

103:                                              ; preds = %99
  %104 = load ptr, ptr %7, align 8, !tbaa !3
  %105 = call zeroext i8 @H5F_sizeof_addr(ptr noundef %104)
  %106 = zext i8 %105 to i64
  %107 = icmp ule i64 %106, 9223372036854775807
  br i1 %107, label %108, label %113

108:                                              ; preds = %103
  %109 = load ptr, ptr %7, align 8, !tbaa !3
  %110 = call zeroext i8 @H5F_sizeof_addr(ptr noundef %109)
  %111 = zext i8 %110 to i64
  %112 = icmp slt i64 %111, 0
  br i1 %112, label %124, label %113

113:                                              ; preds = %108, %103
  %114 = load ptr, ptr %7, align 8, !tbaa !3
  %115 = call zeroext i8 @H5F_sizeof_addr(ptr noundef %114)
  %116 = zext i8 %115 to i64
  %117 = load ptr, ptr %14, align 8, !tbaa !16
  %118 = load ptr, ptr %12, align 8, !tbaa !16
  %119 = ptrtoint ptr %117 to i64
  %120 = ptrtoint ptr %118 to i64
  %121 = sub i64 %119, %120
  %122 = add nsw i64 %121, 1
  %123 = icmp ugt i64 %116, %122
  br i1 %123, label %124, label %143

124:                                              ; preds = %113, %108, %99
  br label %125

125:                                              ; preds = %124
  br label %126

126:                                              ; preds = %125
  br label %127

127:                                              ; preds = %126
  %128 = load i64, ptr @H5E_OHDR_g, align 8, !tbaa !14
  %129 = load i64, ptr @H5E_OVERFLOW_g, align 8, !tbaa !14
  %130 = call i32 (ptr, ptr, i32, i64, i64, ptr, ...) @H5E_printf_stack(ptr noundef @.str.1, ptr noundef @__func__.H5O__shmesg_decode, i32 noundef 90, i64 noundef %128, i64 noundef %129, ptr noundef @.str.3)
  br label %131

131:                                              ; preds = %127
  br label %132

132:                                              ; preds = %131
  store i8 1, ptr %16, align 1, !tbaa !19
  %133 = load i8, ptr %16, align 1, !tbaa !19, !range !21, !noundef !22
  %134 = trunc i8 %133 to i1
  %135 = zext i1 %134 to i8
  store i8 %135, ptr %16, align 1, !tbaa !19
  br label %136

136:                                              ; preds = %132
  br label %137

137:                                              ; preds = %136
  br label %138

138:                                              ; preds = %137
  store ptr null, ptr %15, align 8, !tbaa !18
  br label %185

139:                                              ; No predecessors!
  br label %140

140:                                              ; preds = %139
  br label %141

141:                                              ; preds = %140
  br label %142

142:                                              ; preds = %141
  br label %143

143:                                              ; preds = %142, %113, %88
  %144 = load ptr, ptr %7, align 8, !tbaa !3
  %145 = load ptr, ptr %13, align 8, !tbaa !23
  %146 = getelementptr inbounds nuw %struct.H5O_shmesg_table_t, ptr %145, i32 0, i32 0
  call void @H5F_addr_decode(ptr noundef %144, ptr noundef %12, ptr noundef %146)
  %147 = load ptr, ptr %12, align 8, !tbaa !16
  %148 = load ptr, ptr %14, align 8, !tbaa !16
  %149 = icmp ugt ptr %147, %148
  br i1 %149, label %158, label %150

150:                                              ; preds = %143
  %151 = load ptr, ptr %14, align 8, !tbaa !16
  %152 = load ptr, ptr %12, align 8, !tbaa !16
  %153 = ptrtoint ptr %151 to i64
  %154 = ptrtoint ptr %152 to i64
  %155 = sub i64 %153, %154
  %156 = add nsw i64 %155, 1
  %157 = icmp ugt i64 1, %156
  br i1 %157, label %158, label %177

158:                                              ; preds = %150, %143
  br label %159

159:                                              ; preds = %158
  br label %160

160:                                              ; preds = %159
  br label %161

161:                                              ; preds = %160
  %162 = load i64, ptr @H5E_OHDR_g, align 8, !tbaa !14
  %163 = load i64, ptr @H5E_OVERFLOW_g, align 8, !tbaa !14
  %164 = call i32 (ptr, ptr, i32, i64, i64, ptr, ...) @H5E_printf_stack(ptr noundef @.str.1, ptr noundef @__func__.H5O__shmesg_decode, i32 noundef 94, i64 noundef %162, i64 noundef %163, ptr noundef @.str.3)
  br label %165

165:                                              ; preds = %161
  br label %166

166:                                              ; preds = %165
  store i8 1, ptr %16, align 1, !tbaa !19
  %167 = load i8, ptr %16, align 1, !tbaa !19, !range !21, !noundef !22
  %168 = trunc i8 %167 to i1
  %169 = zext i1 %168 to i8
  store i8 %169, ptr %16, align 1, !tbaa !19
  br label %170

170:                                              ; preds = %166
  br label %171

171:                                              ; preds = %170
  br label %172

172:                                              ; preds = %171
  store ptr null, ptr %15, align 8, !tbaa !18
  br label %185

173:                                              ; No predecessors!
  br label %174

174:                                              ; preds = %173
  br label %175

175:                                              ; preds = %174
  br label %176

176:                                              ; preds = %175
  br label %177

177:                                              ; preds = %176, %150
  %178 = load ptr, ptr %12, align 8, !tbaa !16
  %179 = getelementptr inbounds nuw i8, ptr %178, i32 1
  store ptr %179, ptr %12, align 8, !tbaa !16
  %180 = load i8, ptr %178, align 1, !tbaa !25
  %181 = zext i8 %180 to i32
  %182 = load ptr, ptr %13, align 8, !tbaa !23
  %183 = getelementptr inbounds nuw %struct.H5O_shmesg_table_t, ptr %182, i32 0, i32 2
  store i32 %181, ptr %183, align 4, !tbaa !28
  %184 = load ptr, ptr %13, align 8, !tbaa !23
  store ptr %184, ptr %15, align 8, !tbaa !18
  br label %185

185:                                              ; preds = %177, %172, %138, %83, %52
  %186 = load ptr, ptr %15, align 8, !tbaa !18
  %187 = icmp ne ptr %186, null
  br i1 %187, label %194, label %188

188:                                              ; preds = %185
  %189 = load ptr, ptr %13, align 8, !tbaa !23
  %190 = icmp ne ptr %189, null
  br i1 %190, label %191, label %194

191:                                              ; preds = %188
  %192 = load ptr, ptr %13, align 8, !tbaa !23
  %193 = call ptr @H5MM_xfree(ptr noundef %192)
  br label %194

194:                                              ; preds = %191, %188, %185
  br label %195

195:                                              ; preds = %194, %27
  %196 = load ptr, ptr %15, align 8, !tbaa !18
  call void @llvm.lifetime.end.p0(i64 1, ptr %16) #8
  call void @llvm.lifetime.end.p0(i64 8, ptr %15) #8
  call void @llvm.lifetime.end.p0(i64 8, ptr %14) #8
  call void @llvm.lifetime.end.p0(i64 8, ptr %13) #8
  ret ptr %196
}