; Function Attrs: nounwind uwtable
define internal noundef ptr @H5O__shmesg_decode(ptr noundef %0, ptr readnone captures(none) %1, i32 %2, ptr readnone captures(none) %3, i64 noundef %4, ptr noundef %5) #0 {
  %7 = alloca ptr, align 8
  store ptr %5, ptr %7, align 8, !tbaa !3
  %8 = getelementptr i8, ptr %5, i64 %4
  %.ptr34 = getelementptr i8, ptr %8, i64 -1
  %9 = load i8, ptr @H5O_init_g, align 1, !tbaa !8, !range !10, !noundef !11
  %10 = trunc nuw i8 %9 to i1
  %11 = load i8, ptr @H5_libterm_g, align 1, !range !10
  %12 = trunc nuw i8 %11 to i1
  %13 = xor i1 %12, true
  %14 = select i1 %10, i1 true, i1 %13
  br i1 %14, label %15, label %.thread, !prof !12

15:                                               ; preds = %6
  %16 = tail call noalias dereferenceable_or_null(16) ptr @calloc(i64 noundef 1, i64 noundef 16) #7
  %17 = icmp eq ptr %16, null
  br i1 %17, label %18, label %22

18:                                               ; preds = %15
  %19 = load i64, ptr @H5E_RESOURCE_g, align 8, !tbaa !13
  %20 = load i64, ptr @H5E_NOSPACE_g, align 8, !tbaa !13
  %21 = tail call i32 (ptr, ptr, i32, i64, i64, ptr, ...) @H5E_printf_stack(ptr noundef nonnull @.str.1, ptr noundef nonnull @__func__.H5O__shmesg_decode, i32 noundef 82, i64 noundef %19, i64 noundef %20, ptr noundef nonnull @.str.2) #8
  br label %.thread

22:                                               ; preds = %15
  %23 = icmp ugt ptr %5, %.ptr34
  br i1 %23, label %29, label %24

24:                                               ; preds = %22
  %25 = ptrtoint ptr %.ptr34 to i64
  %26 = ptrtoint ptr %5 to i64
  %27 = sub i64 %25, %26
  %28 = icmp eq i64 %27, -1
  br i1 %28, label %29, label %33

29:                                               ; preds = %22, %24
  %30 = load i64, ptr @H5E_OHDR_g, align 8, !tbaa !13
  %31 = load i64, ptr @H5E_OVERFLOW_g, align 8, !tbaa !13
  %32 = tail call i32 (ptr, ptr, i32, i64, i64, ptr, ...) @H5E_printf_stack(ptr noundef nonnull @.str.1, ptr noundef nonnull @__func__.H5O__shmesg_decode, i32 noundef 86, i64 noundef %30, i64 noundef %31, ptr noundef nonnull @.str.3) #8
  br label %69

33:                                               ; preds = %24
  %34 = getelementptr inbounds nuw i8, ptr %5, i64 1
  store ptr %34, ptr %7, align 8, !tbaa !3
  %35 = load i8, ptr %5, align 1, !tbaa !15
  %36 = zext i8 %35 to i32
  %37 = getelementptr inbounds nuw i8, ptr %16, i64 8
  store i32 %36, ptr %37, align 8, !tbaa !16
  %38 = tail call zeroext i8 @H5F_sizeof_addr(ptr noundef %0) #8
  %.not = icmp eq i8 %38, 0
  br i1 %.not, label %54, label %39

39:                                               ; preds = %33
  %40 = icmp slt i64 %4, 2
  br i1 %40, label %50, label %41

41:                                               ; preds = %39
  %42 = tail call zeroext i8 @H5F_sizeof_addr(ptr noundef %0) #8
  %43 = tail call zeroext i8 @H5F_sizeof_addr(ptr noundef %0) #8
  %44 = tail call zeroext i8 @H5F_sizeof_addr(ptr noundef %0) #8
  %45 = zext i8 %44 to i64
  %46 = ptrtoint ptr %34 to i64
  %47 = add i64 %25, 1
  %48 = sub i64 %47, %46
  %49 = icmp ult i64 %48, %45
  br i1 %49, label %50, label %54

50:                                               ; preds = %39, %41
  %51 = load i64, ptr @H5E_OHDR_g, align 8, !tbaa !13
  %52 = load i64, ptr @H5E_OVERFLOW_g, align 8, !tbaa !13
  %53 = tail call i32 (ptr, ptr, i32, i64, i64, ptr, ...) @H5E_printf_stack(ptr noundef nonnull @.str.1, ptr noundef nonnull @__func__.H5O__shmesg_decode, i32 noundef 90, i64 noundef %51, i64 noundef %52, ptr noundef nonnull @.str.3) #8
  br label %69

54:                                               ; preds = %41, %33
  call void @H5F_addr_decode(ptr noundef %0, ptr noundef nonnull %7, ptr noundef nonnull %16) #8
  %55 = load ptr, ptr %7, align 8, !tbaa !3
  %56 = icmp ugt ptr %55, %.ptr34
  %57 = ptrtoint ptr %55 to i64
  %58 = sub i64 %25, %57
  %59 = icmp eq i64 %58, -1
  %or.cond31 = or i1 %56, %59
  br i1 %or.cond31, label %60, label %64

60:                                               ; preds = %54
  %61 = load i64, ptr @H5E_OHDR_g, align 8, !tbaa !13
  %62 = load i64, ptr @H5E_OVERFLOW_g, align 8, !tbaa !13
  %63 = call i32 (ptr, ptr, i32, i64, i64, ptr, ...) @H5E_printf_stack(ptr noundef nonnull @.str.1, ptr noundef nonnull @__func__.H5O__shmesg_decode, i32 noundef 94, i64 noundef %61, i64 noundef %62, ptr noundef nonnull @.str.3) #8
  br label %69

64:                                               ; preds = %54
  %65 = getelementptr inbounds nuw i8, ptr %55, i64 1
  store ptr %65, ptr %7, align 8, !tbaa !3
  %66 = load i8, ptr %55, align 1, !tbaa !15
  %67 = zext i8 %66 to i32
  %68 = getelementptr inbounds nuw i8, ptr %16, i64 12
  store i32 %67, ptr %68, align 4, !tbaa !19
  br label %.thread

69:                                               ; preds = %29, %50, %60
  %70 = call ptr @H5MM_xfree(ptr noundef nonnull %16) #8
  br label %.thread

.thread:                                          ; preds = %18, %64, %69, %6
  %.0 = phi ptr [ null, %69 ], [ null, %6 ], [ %16, %64 ], [ null, %18 ]
  ret ptr %.0
}